target datalayout = "e-m:e-p270:32:32-p271:32:32-p272:64:64-i64:64-i128:128-f80:128-n8:16:32:64-S128"
target triple = "x86_64-pc-linux-gnu"

%struct.solver_t_ = type { i32, ptr, ptr, ptr, ptr, ptr, ptr, i64, i32, ptr, ptr, ptr, ptr, ptr, ptr, ptr, ptr, i32, i32, i64, ptr, ptr, ptr, ptr, ptr, ptr, ptr, i64, i64, i64, float, i32, ptr, i32, i32, i32, i32, i32, ptr, i64, ptr, i32, ptr, %struct.satoko_stats, %struct.satoko_opts }
%struct.satoko_stats = type { i32, i32, i64, i64, i64, i64, i64, i64, i64, i64 }
%struct.satoko_opts = type { i64, i64, double, double, i32, i32, i32, i32, i32, i32, i32, float, double, float, i32, i64, i32, i32, float, i8, i8 }
%struct.clause = type { i32, i32, [0 x %union.anon] }
%union.anon = type { i32 }
%struct.vec_uint_t_ = type { i32, i32, ptr }
%struct.cdb = type { i32, i32, i32, ptr }

@stdout = external global ptr, align 8
@.str.4 = private unnamed_addr constant [35 x i8] c"[Satoko] Checking clauses (%d)...\0A\00", align 1
@.str.5 = private unnamed_addr constant [36 x i8] c"[Satoko] FOUND UNSAT CLAUSE]: (%d) \00", align 1
@.str.6 = private unnamed_addr constant [23 x i8] c"[Satoko] All SAT - OK\0A\00", align 1
@.str.11 = private unnamed_addr constant [29 x i8] c"Vector has %u(%u) entries: {\00", align 1
@.str.12 = private unnamed_addr constant [4 x i8] c" %u\00", align 1
@.str.13 = private unnamed_addr constant [4 x i8] c" }\0A\00", align 1
@.str.14 = private unnamed_addr constant [3 x i8] c"{ \00", align 1
@.str.15 = private unnamed_addr constant [4 x i8] c"%u \00", align 1
@.str.16 = private unnamed_addr constant [3 x i8] c"}\0A\00", align 1

; Function Attrs: inlinehint nounwind uwtable
define internal ptr @cdb_handler(ptr noundef %0, i32 noundef %1) #2 {
  %3 = alloca ptr, align 8
  %4 = alloca i32, align 4
  store ptr %0, ptr %3, align 8, !tbaa !37
  store i32 %1, ptr %4, align 4, !tbaa !10
  %5 = load i32, ptr %4, align 4, !tbaa !10
  %6 = icmp ne i32 %5, -1
  br i1 %6, label %7, label %14

7:                                                ; preds = %2
  %8 = load ptr, ptr %3, align 8, !tbaa !37
  %9 = getelementptr inbounds nuw %struct.cdb, ptr %8, i32 0, i32 3
  %10 = load ptr, ptr %9, align 8, !tbaa !151
  %11 = load i32, ptr %4, align 4, !tbaa !10
  %12 = zext i32 %11 to i64
  %13 = getelementptr inbounds nuw i32, ptr %10, i64 %12
  br label %15

14:                                               ; preds = %2
  br label %15

15:                                               ; preds = %14, %7
  %16 = phi ptr [ %13, %7 ], [ null, %14 ]
  ret ptr %16
}

; Function Attrs: inlinehint nounwind uwtable
define internal void @clause_print(ptr noundef %0) #2 {
  %2 = alloca ptr, align 8
  %3 = alloca i32, align 4
  store ptr %0, ptr %2, align 8, !tbaa !26
  call void @llvm.lifetime.start.p0(i64 4, ptr %3) #9
  %4 = call i32 (ptr, ...) @printf(ptr noundef @.str.14)
  store i32 0, ptr %3, align 4, !tbaa !10
  br label %5

5:                                                ; preds = %19, %1
  %6 = load i32, ptr %3, align 4, !tbaa !10
  %7 = load ptr, ptr %2, align 8, !tbaa !26
  %8 = getelementptr inbounds nuw %struct.clause, ptr %7, i32 0, i32 1
  %9 = load i32, ptr %8, align 4, !tbaa !28
  %10 = icmp ult i32 %6, %9
  br i1 %10, label %11, label %22

11:                                               ; preds = %5
  %12 = load ptr, ptr %2, align 8, !tbaa !26
  %13 = getelementptr inbounds nuw %struct.clause, ptr %12, i32 0, i32 2
  %14 = load i32, ptr %3, align 4, !tbaa !10
  %15 = zext i32 %14 to i64
  %16 = getelementptr inbounds nuw [0 x %union.anon], ptr %13, i64 0, i64 %15
  %17 = load i32, ptr %16, align 4, !tbaa !31
  %18 = call i32 (ptr, ...) @printf(ptr noundef @.str.15, i32 noundef %17)
  br label %19

19:                                               ; preds = %11
  %20 = load i32, ptr %3, align 4, !tbaa !10
  %21 = add i32 %20, 1
  store i32 %21, ptr %3, align 4, !tbaa !10
  br label %5, !llvm.loop !146

22:                                               ; preds = %5
  %23 = call i32 (ptr, ...) @printf(ptr noundef @.str.16)
  call void @llvm.lifetime.end.p0(i64 4, ptr %3) #9
  ret void
}

; Function Attrs: inlinehint nounwind uwtable
define internal void @vec_uint_print(ptr noundef %0) #2 {
  %2 = alloca ptr, align 8
  %3 = alloca i32, align 4
  store ptr %0, ptr %2, align 8, !tbaa !8
  call void @llvm.lifetime.start.p0(i64 4, ptr %3) #9
  %4 = load ptr, ptr @stdout, align 8, !tbaa !132
  %5 = load ptr, ptr %2, align 8, !tbaa !8
  %6 = getelementptr inbounds nuw %struct.vec_uint_t_, ptr %5, i32 0, i32 1
  %7 = load i32, ptr %6, align 4, !tbaa !35
  %8 = load ptr, ptr %2, align 8, !tbaa !8
  %9 = getelementptr inbounds nuw %struct.vec_uint_t_, ptr %8, i32 0, i32 0
  %10 = load i32, ptr %9, align 8, !tbaa !41
  %11 = call i32 (ptr, ptr, ...) @fprintf(ptr noundef %4, ptr noundef @.str.11, i32 noundef %7, i32 noundef %10) #9
  store i32 0, ptr %3, align 4, !tbaa !10
  br label %12

12:                                               ; preds = %28, %1
  %13 = load i32, ptr %3, align 4, !tbaa !10
  %14 = load ptr, ptr %2, align 8, !tbaa !8
  %15 = getelementptr inbounds nuw %struct.vec_uint_t_, ptr %14, i32 0, i32 1
  %16 = load i32, ptr %15, align 4, !tbaa !35
  %17 = icmp ult i32 %13, %16
  br i1 %17, label %18, label %31

18:                                               ; preds = %12
  %19 = load ptr, ptr @stdout, align 8, !tbaa !132
  %20 = load ptr, ptr %2, align 8, !tbaa !8
  %21 = getelementptr inbounds nuw %struct.vec_uint_t_, ptr %20, i32 0, i32 2
  %22 = load ptr, ptr %21, align 8, !tbaa !40
  %23 = load i32, ptr %3, align 4, !tbaa !10
  %24 = zext i32 %23 to i64
  %25 = getelementptr inbounds nuw i32, ptr %22, i64 %24
  %26 = load i32, ptr %25, align 4, !tbaa !10
  %27 = call i32 (ptr, ptr, ...) @fprintf(ptr noundef %19, ptr noundef @.str.12, i32 noundef %26) #9
  br label %28

28:                                               ; preds = %18
  %29 = load i32, ptr %3, align 4, !tbaa !10
  %30 = add i32 %29, 1
  store i32 %30, ptr %3, align 4, !tbaa !10
  br label %12, !llvm.loop !142

31:                                               ; preds = %12
  %32 = load ptr, ptr @stdout, align 8, !tbaa !132
  %33 = call i32 (ptr, ptr, ...) @fprintf(ptr noundef %32, ptr noundef @.str.13) #9
  call void @llvm.lifetime.end.p0(i64 4, ptr %3) #9
  ret void
}

; Function Attrs: inlinehint nounwind uwtable
define internal i32 @vec_uint_find(ptr noundef %0, i32 noundef %1) #2 {
  %3 = alloca i32, align 4
  %4 = alloca ptr, align 8
  %5 = alloca i32, align 4
  %6 = alloca i32, align 4
  %7 = alloca i32, align 4
  store ptr %0, ptr %4, align 8, !tbaa !8
  store i32 %1, ptr %5, align 4, !tbaa !10
  call void @llvm.lifetime.start.p0(i64 4, ptr %6) #9
  store i32 0, ptr %6, align 4, !tbaa !10
  br label %8

8:                                                ; preds = %26, %2
  %9 = load i32, ptr %6, align 4, !tbaa !10
  %10 = load ptr, ptr %4, align 8, !tbaa !8
  %11 = getelementptr inbounds nuw %struct.vec_uint_t_, ptr %10, i32 0, i32 1
  %12 = load i32, ptr %11, align 4, !tbaa !35
  %13 = icmp ult i32 %9, %12
  br i1 %13, label %14, label %29

14:                                               ; preds = %8
  %15 = load ptr, ptr %4, align 8, !tbaa !8
  %16 = getelementptr inbounds nuw %struct.vec_uint_t_, ptr %15, i32 0, i32 2
  %17 = load ptr, ptr %16, align 8, !tbaa !40
  %18 = load i32, ptr %6, align 4, !tbaa !10
  %19 = zext i32 %18 to i64
  %20 = getelementptr inbounds nuw i32, ptr %17, i64 %19
  %21 = load i32, ptr %20, align 4, !tbaa !10
  %22 = load i32, ptr %5, align 4, !tbaa !10
  %23 = icmp eq i32 %21, %22
  br i1 %23, label %24, label %25

24:                                               ; preds = %14
  store i32 1, ptr %3, align 4
  store i32 1, ptr %7, align 4
  br label %30

25:                                               ; preds = %14
  br label %26

26:                                               ; preds = %25
  %27 = load i32, ptr %6, align 4, !tbaa !10
  %28 = add i32 %27, 1
  store i32 %28, ptr %6, align 4, !tbaa !10
  br label %8, !llvm.loop !145

29:                                               ; preds = %8
  store i32 0, ptr %3, align 4
  store i32 1, ptr %7, align 4
  br label %30

30:                                               ; preds = %29, %24
  call void @llvm.lifetime.end.p0(i64 4, ptr %6) #9
  %31 = load i32, ptr %3, align 4
  ret i32 %31
}

; Function Attrs: inlinehint nounwind uwtable
define internal i32 @lit_compl(i32 noundef %0) #2 {
  %2 = alloca i32, align 4
  store i32 %0, ptr %2, align 4, !tbaa !10
  %3 = load i32, ptr %2, align 4, !tbaa !10
  %4 = xor i32 %3, 1
  ret i32 %4
}

; Function Attrs: inlinehint nounwind uwtable
define internal ptr @clause_fetch(ptr noundef %0, i32 noundef %1) #2 {
  %3 = alloca ptr, align 8
  %4 = alloca i32, align 4
  store ptr %0, ptr %3, align 8, !tbaa !3
  store i32 %1, ptr %4, align 4, !tbaa !10
  %5 = load ptr, ptr %3, align 8, !tbaa !3
  %6 = getelementptr inbounds nuw %struct.solver_t_, ptr %5, i32 0, i32 3
  %7 = load ptr, ptr %6, align 8, !tbaa !12
  %8 = load i32, ptr %4, align 4, !tbaa !10
  %9 = call ptr @cdb_handler(ptr noundef %7, i32 noundef %8)
  ret ptr %9
}

; Function Attrs: inlinehint nounwind uwtable
define internal i32 @vec_uint_at(ptr noundef %0, i32 noundef %1) #2 {
  %3 = alloca ptr, align 8
  %4 = alloca i32, align 4
  store ptr %0, ptr %3, align 8, !tbaa !8
  store i32 %1, ptr %4, align 4, !tbaa !10
  %5 = load ptr, ptr %3, align 8, !tbaa !8
  %6 = getelementptr inbounds nuw %struct.vec_uint_t_, ptr %5, i32 0, i32 2
  %7 = load ptr, ptr %6, align 8, !tbaa !40
  %8 = load i32, ptr %4, align 4, !tbaa !10
  %9 = zext i32 %8 to i64
  %10 = getelementptr inbounds nuw i32, ptr %7, i64 %9
  %11 = load i32, ptr %10, align 4, !tbaa !10
  ret i32 %11
}

; Function Attrs: inlinehint nounwind uwtable
define internal i32 @vec_uint_size(ptr noundef %0) #2 {
  %2 = alloca ptr, align 8
  store ptr %0, ptr %2, align 8, !tbaa !8
  %3 = load ptr, ptr %2, align 8, !tbaa !8
  %4 = getelementptr inbounds nuw %struct.vec_uint_t_, ptr %3, i32 0, i32 1
  %5 = load i32, ptr %4, align 4, !tbaa !35
  ret i32 %5
}

; Function Attrs: nounwind uwtable
define void @solver_debug_check_clauses(ptr noundef %0) #0 {
  %2 = alloca ptr, align 8
  %3 = alloca i32, align 4
  %4 = alloca i32, align 4
  %5 = alloca i32, align 4
  %6 = alloca ptr, align 8
  store ptr %0, ptr %2, align 8, !tbaa !3
  call void @llvm.lifetime.start.p0(i64 4, ptr %3) #9
  call void @llvm.lifetime.start.p0(i64 4, ptr %4) #9
  %7 = load ptr, ptr @stdout, align 8, !tbaa !132
  %8 = load ptr, ptr %2, align 8, !tbaa !3
  %9 = getelementptr inbounds nuw %struct.solver_t_, ptr %8, i32 0, i32 5
  %10 = load ptr, ptr %9, align 8, !tbaa !33
  %11 = call i32 @vec_uint_size(ptr noundef %10)
  %12 = call i32 (ptr, ptr, ...) @fprintf(ptr noundef %7, ptr noundef @.str.4, i32 noundef %11) #9
  store i32 0, ptr %4, align 4, !tbaa !10
  br label %13

13:                                               ; preds = %71, %1
  %14 = load i32, ptr %4, align 4, !tbaa !10
  %15 = load ptr, ptr %2, align 8, !tbaa !3
  %16 = getelementptr inbounds nuw %struct.solver_t_, ptr %15, i32 0, i32 5
  %17 = load ptr, ptr %16, align 8, !tbaa !33
  %18 = call i32 @vec_uint_size(ptr noundef %17)
  %19 = icmp ult i32 %14, %18
  br i1 %19, label %20, label %26

20:                                               ; preds = %13
  %21 = load ptr, ptr %2, align 8, !tbaa !3
  %22 = getelementptr inbounds nuw %struct.solver_t_, ptr %21, i32 0, i32 5
  %23 = load ptr, ptr %22, align 8, !tbaa !33
  %24 = load i32, ptr %4, align 4, !tbaa !10
  %25 = call i32 @vec_uint_at(ptr noundef %23, i32 noundef %24)
  store i32 %25, ptr %3, align 4, !tbaa !10
  br label %26

26:                                               ; preds = %20, %13
  %27 = phi i1 [ false, %13 ], [ true, %20 ]
  br i1 %27, label %28, label %74

28:                                               ; preds = %26
  call void @llvm.lifetime.start.p0(i64 4, ptr %5) #9
  call void @llvm.lifetime.start.p0(i64 8, ptr %6) #9
  %29 = load ptr, ptr %2, align 8, !tbaa !3
  %30 = load i32, ptr %3, align 4, !tbaa !10
  %31 = call ptr @clause_fetch(ptr noundef %29, i32 noundef %30)
  store ptr %31, ptr %6, align 8, !tbaa !26
  store i32 0, ptr %5, align 4, !tbaa !10
  br label %32

32:                                               ; preds = %53, %28
  %33 = load i32, ptr %5, align 4, !tbaa !10
  %34 = load ptr, ptr %6, align 8, !tbaa !26
  %35 = getelementptr inbounds nuw %struct.clause, ptr %34, i32 0, i32 1
  %36 = load i32, ptr %35, align 4, !tbaa !28
  %37 = icmp ult i32 %33, %36
  br i1 %37, label %38, label %56

38:                                               ; preds = %32
  %39 = load ptr, ptr %2, align 8, !tbaa !3
  %40 = getelementptr inbounds nuw %struct.solver_t_, ptr %39, i32 0, i32 15
  %41 = load ptr, ptr %40, align 8, !tbaa !48
  %42 = load ptr, ptr %6, align 8, !tbaa !26
  %43 = getelementptr inbounds nuw %struct.clause, ptr %42, i32 0, i32 2
  %44 = load i32, ptr %5, align 4, !tbaa !10
  %45 = zext i32 %44 to i64
  %46 = getelementptr inbounds nuw [0 x %union.anon], ptr %43, i64 0, i64 %45
  %47 = load i32, ptr %46, align 4, !tbaa !31
  %48 = call i32 @lit_compl(i32 noundef %47)
  %49 = call i32 @vec_uint_find(ptr noundef %41, i32 noundef %48)
  %50 = icmp ne i32 %49, 0
  br i1 %50, label %51, label %52

51:                                               ; preds = %38
  br label %53

52:                                               ; preds = %38
  br label %56

53:                                               ; preds = %51
  %54 = load i32, ptr %5, align 4, !tbaa !10
  %55 = add i32 %54, 1
  store i32 %55, ptr %5, align 4, !tbaa !10
  br label %32, !llvm.loop !143

56:                                               ; preds = %52, %32
  %57 = load i32, ptr %5, align 4, !tbaa !10
  %58 = load ptr, ptr %6, align 8, !tbaa !26
  %59 = getelementptr inbounds nuw %struct.clause, ptr %58, i32 0, i32 1
  %60 = load i32, ptr %59, align 4, !tbaa !28
  %61 = icmp eq i32 %57, %60
  br i1 %61, label %62, label %70

62:                                               ; preds = %56
  %63 = load ptr, ptr %2, align 8, !tbaa !3
  %64 = getelementptr inbounds nuw %struct.solver_t_, ptr %63, i32 0, i32 15
  %65 = load ptr, ptr %64, align 8, !tbaa !48
  call void @vec_uint_print(ptr noundef %65)
  %66 = load ptr, ptr @stdout, align 8, !tbaa !132
  %67 = load i32, ptr %4, align 4, !tbaa !10
  %68 = call i32 (ptr, ptr, ...) @fprintf(ptr noundef %66, ptr noundef @.str.5, i32 noundef %67) #9
  %69 = load ptr, ptr %6, align 8, !tbaa !26
  call void @clause_print(ptr noundef %69)
  br label %70

70:                                               ; preds = %62, %56
  call void @llvm.lifetime.end.p0(i64 8, ptr %6) #9
  call void @llvm.lifetime.end.p0(i64 4, ptr %5) #9
  br label %71

71:                                               ; preds = %70
  %72 = load i32, ptr %4, align 4, !tbaa !10
  %73 = add i32 %72, 1
  store i32 %73, ptr %4, align 4, !tbaa !10
  br label %13, !llvm.loop !144

74:                                               ; preds = %26
  %75 = load ptr, ptr @stdout, align 8, !tbaa !132
  %76 = call i32 (ptr, ptr, ...) @fprintf(ptr noundef %75, ptr noundef @.str.6) #9
  call void @llvm.lifetime.end.p0(i64 4, ptr %4) #9
  call void @llvm.lifetime.end.p0(i64 4, ptr %3) #9
  ret void
}