; Function Attrs: nofree nounwind uwtable
define void @solver_debug_check_clauses(ptr noundef readonly captures(none) %0) local_unnamed_addr #5 {
  %2 = load ptr, ptr @stdout, align 8, !tbaa !89
  %3 = getelementptr inbounds nuw i8, ptr %0, i64 40
  %4 = load ptr, ptr %3, align 8, !tbaa !44
  %5 = getelementptr i8, ptr %4, i64 4
  %.val19 = load i32, ptr %5, align 4, !tbaa !3
  %6 = tail call i32 (ptr, ptr, ...) @fprintf(ptr noundef %2, ptr noundef nonnull @.str.4, i32 noundef %.val19) #19
  %7 = load ptr, ptr %3, align 8, !tbaa !44
  %8 = getelementptr i8, ptr %7, i64 4
  %.val44 = load i32, ptr %8, align 4, !tbaa !3
  %.not = icmp eq i32 %.val44, 0
  br i1 %.not, label %.critedge, label %.lr.ph46

.lr.ph46:                                         ; preds = %1
  %9 = getelementptr i8, ptr %0, i64 24
  %10 = getelementptr inbounds nuw i8, ptr %0, i64 120
  br label %11

11:                                               ; preds = %.lr.ph46, %72
  %12 = phi ptr [ %7, %.lr.ph46 ], [ %73, %72 ]
  %indvars.iv50 = phi i64 [ 0, %.lr.ph46 ], [ %indvars.iv.next51, %72 ]
  %13 = getelementptr i8, ptr %12, i64 8
  %.val21 = load ptr, ptr %13, align 8, !tbaa !32
  %14 = getelementptr inbounds nuw i32, ptr %.val21, i64 %indvars.iv50
  %15 = load i32, ptr %14, align 4, !tbaa !35
  %.not.i.i = icmp eq i32 %15, -1
  br i1 %.not.i.i, label %clause_fetch.exit, label %16

16:                                               ; preds = %11
  %.val20 = load ptr, ptr %9, align 8, !tbaa !10
  %17 = getelementptr inbounds nuw i8, ptr %.val20, i64 16
  %18 = load ptr, ptr %17, align 8, !tbaa !29
  %19 = zext i32 %15 to i64
  %20 = getelementptr inbounds nuw i32, ptr %18, i64 %19
  br label %clause_fetch.exit

clause_fetch.exit:                                ; preds = %11, %16
  %21 = phi ptr [ %20, %16 ], [ null, %11 ]
  %22 = getelementptr inbounds nuw i8, ptr %21, i64 4
  %23 = load i32, ptr %22, align 4, !tbaa !30
  %.not47 = icmp eq i32 %23, 0
  br i1 %.not47, label %vec_uint_find.exit.thread, label %.lr.ph

.lr.ph:                                           ; preds = %clause_fetch.exit
  %24 = load ptr, ptr %10, align 8, !tbaa !47
  %25 = getelementptr inbounds nuw i8, ptr %21, i64 8
  %26 = getelementptr inbounds nuw i8, ptr %24, i64 4
  %27 = load i32, ptr %26, align 4, !tbaa !3
  %.not.i = icmp eq i32 %27, 0
  %wide.trip.count.i = zext i32 %27 to i64
  br i1 %.not.i, label %vec_uint_find.exit.thread, label %.lr.ph.split

.lr.ph.split:                                     ; preds = %.lr.ph
  %28 = getelementptr inbounds nuw i8, ptr %24, i64 8
  %29 = load ptr, ptr %28, align 8, !tbaa !32
  %wide.trip.count = zext i32 %23 to i64
  br label %.lr.ph.i

.lr.ph.i:                                         ; preds = %.lr.ph.split, %vec_uint_find.exit
  %indvars.iv = phi i64 [ 0, %.lr.ph.split ], [ %indvars.iv.next, %vec_uint_find.exit ]
  %30 = getelementptr inbounds nuw [0 x %union.anon], ptr %25, i64 0, i64 %indvars.iv
  %31 = load i32, ptr %30, align 4, !tbaa !40
  br label %33

32:                                               ; preds = %33
  %indvars.iv.next.i = add nuw nsw i64 %indvars.iv.i, 1
  %exitcond.not.i = icmp eq i64 %indvars.iv.next.i, %wide.trip.count.i
  br i1 %exitcond.not.i, label %vec_uint_find.exit.thread.loopexit, label %33, !llvm.loop !182

33:                                               ; preds = %32, %.lr.ph.i
  %indvars.iv.i = phi i64 [ 0, %.lr.ph.i ], [ %indvars.iv.next.i, %32 ]
  %34 = getelementptr inbounds nuw i32, ptr %29, i64 %indvars.iv.i
  %35 = load i32, ptr %34, align 4, !tbaa !35
  %36 = xor i32 %35, %31
  %37 = icmp eq i32 %36, 1
  br i1 %37, label %vec_uint_find.exit, label %32

vec_uint_find.exit:                               ; preds = %33
  %indvars.iv.next = add nuw nsw i64 %indvars.iv, 1
  %exitcond.not = icmp eq i64 %indvars.iv.next, %wide.trip.count
  br i1 %exitcond.not, label %vec_uint_find.exit.thread.thread, label %.lr.ph.i, !llvm.loop !183

vec_uint_find.exit.thread.loopexit:               ; preds = %32
  %38 = trunc nuw i64 %indvars.iv to i32
  br label %vec_uint_find.exit.thread

vec_uint_find.exit.thread:                        ; preds = %clause_fetch.exit, %.lr.ph, %vec_uint_find.exit.thread.loopexit
  %.01837 = phi i32 [ %38, %vec_uint_find.exit.thread.loopexit ], [ 0, %clause_fetch.exit ], [ 0, %.lr.ph ]
  %39 = icmp eq i32 %.01837, %23
  br i1 %39, label %vec_uint_find.exit.thread.thread, label %72

vec_uint_find.exit.thread.thread:                 ; preds = %vec_uint_find.exit, %vec_uint_find.exit.thread
  %40 = load ptr, ptr %10, align 8, !tbaa !47
  %41 = load ptr, ptr @stdout, align 8, !tbaa !89
  %42 = getelementptr inbounds nuw i8, ptr %40, i64 4
  %43 = load i32, ptr %42, align 4, !tbaa !3
  %44 = load i32, ptr %40, align 8, !tbaa !34
  %45 = tail call i32 (ptr, ptr, ...) @fprintf(ptr noundef %41, ptr noundef nonnull @.str.11, i32 noundef %43, i32 noundef %44) #19
  %46 = load i32, ptr %42, align 4, !tbaa !3
  %.not.i22 = icmp eq i32 %46, 0
  br i1 %.not.i22, label %vec_uint_print.exit, label %.lr.ph.i23

.lr.ph.i23:                                       ; preds = %vec_uint_find.exit.thread.thread
  %47 = getelementptr inbounds nuw i8, ptr %40, i64 8
  br label %48

48:                                               ; preds = %48, %.lr.ph.i23
  %indvars.iv.i24 = phi i64 [ 0, %.lr.ph.i23 ], [ %indvars.iv.next.i25, %48 ]
  %49 = load ptr, ptr @stdout, align 8, !tbaa !89
  %50 = load ptr, ptr %47, align 8, !tbaa !32
  %51 = getelementptr inbounds nuw i32, ptr %50, i64 %indvars.iv.i24
  %52 = load i32, ptr %51, align 4, !tbaa !35
  %53 = tail call i32 (ptr, ptr, ...) @fprintf(ptr noundef %49, ptr noundef nonnull @.str.12, i32 noundef %52) #19
  %indvars.iv.next.i25 = add nuw nsw i64 %indvars.iv.i24, 1
  %54 = load i32, ptr %42, align 4, !tbaa !3
  %55 = zext i32 %54 to i64
  %56 = icmp samesign ult i64 %indvars.iv.next.i25, %55
  br i1 %56, label %48, label %vec_uint_print.exit, !llvm.loop !181

vec_uint_print.exit:                              ; preds = %48, %vec_uint_find.exit.thread.thread
  %57 = load ptr, ptr @stdout, align 8, !tbaa !89
  %58 = tail call i64 @fwrite(ptr nonnull @.str.13, i64 3, i64 1, ptr %57)
  %59 = load ptr, ptr @stdout, align 8, !tbaa !89
  %60 = trunc nuw i64 %indvars.iv50 to i32
  %61 = tail call i32 (ptr, ptr, ...) @fprintf(ptr noundef %59, ptr noundef nonnull @.str.5, i32 noundef %60) #19
  %62 = tail call i32 (ptr, ...) @printf(ptr noundef nonnull dereferenceable(1) @.str.14)
  %63 = load i32, ptr %22, align 4, !tbaa !30
  %.not.i26 = icmp eq i32 %63, 0
  br i1 %.not.i26, label %clause_print.exit, label %.lr.ph.i27

.lr.ph.i27:                                       ; preds = %vec_uint_print.exit
  %64 = getelementptr inbounds nuw i8, ptr %21, i64 8
  br label %65

65:                                               ; preds = %65, %.lr.ph.i27
  %indvars.iv.i28 = phi i64 [ 0, %.lr.ph.i27 ], [ %indvars.iv.next.i29, %65 ]
  %66 = getelementptr inbounds nuw [0 x %union.anon], ptr %64, i64 0, i64 %indvars.iv.i28
  %67 = load i32, ptr %66, align 4, !tbaa !40
  %68 = tail call i32 (ptr, ...) @printf(ptr noundef nonnull dereferenceable(1) @.str.15, i32 noundef %67)
  %indvars.iv.next.i29 = add nuw nsw i64 %indvars.iv.i28, 1
  %69 = load i32, ptr %22, align 4, !tbaa !30
  %70 = zext i32 %69 to i64
  %71 = icmp samesign ult i64 %indvars.iv.next.i29, %70
  br i1 %71, label %65, label %clause_print.exit, !llvm.loop !184

clause_print.exit:                                ; preds = %65, %vec_uint_print.exit
  %puts.i = tail call i32 @puts(ptr nonnull dereferenceable(1) @str)
  %.pre = load ptr, ptr %3, align 8, !tbaa !44
  br label %72

72:                                               ; preds = %clause_print.exit, %vec_uint_find.exit.thread
  %73 = phi ptr [ %.pre, %clause_print.exit ], [ %12, %vec_uint_find.exit.thread ]
  %indvars.iv.next51 = add nuw nsw i64 %indvars.iv50, 1
  %74 = getelementptr i8, ptr %73, i64 4
  %.val = load i32, ptr %74, align 4, !tbaa !3
  %75 = zext i32 %.val to i64
  %76 = icmp samesign ult i64 %indvars.iv.next51, %75
  br i1 %76, label %11, label %.critedge, !llvm.loop !185

.critedge:                                        ; preds = %72, %1
  %77 = load ptr, ptr @stdout, align 8, !tbaa !89
  %78 = tail call i64 @fwrite(ptr nonnull @.str.6, i64 22, i64 1, ptr %77)
  ret void
}